
_main:

;Ex3.c,1 :: 		void main()
;Ex3.c,3 :: 		trisa = 0; // configurar como saida
	CLRF       TRISA+0
;Ex3.c,5 :: 		trisb = 0b00000000;
	CLRF       TRISB+0
;Ex3.c,6 :: 		while (1)  // laco infinito
L_main0:
;Ex3.c,9 :: 		porta = 1;
	MOVLW      1
	MOVWF      PORTA+0
;Ex3.c,10 :: 		delay_ms(1000);
	MOVLW      11
	MOVWF      R11+0
	MOVLW      38
	MOVWF      R12+0
	MOVLW      93
	MOVWF      R13+0
L_main2:
	DECFSZ     R13+0, 1
	GOTO       L_main2
	DECFSZ     R12+0, 1
	GOTO       L_main2
	DECFSZ     R11+0, 1
	GOTO       L_main2
	NOP
	NOP
;Ex3.c,11 :: 		porta = 0;
	CLRF       PORTA+0
;Ex3.c,12 :: 		delay_ms(1000);
	MOVLW      11
	MOVWF      R11+0
	MOVLW      38
	MOVWF      R12+0
	MOVLW      93
	MOVWF      R13+0
L_main3:
	DECFSZ     R13+0, 1
	GOTO       L_main3
	DECFSZ     R12+0, 1
	GOTO       L_main3
	DECFSZ     R11+0, 1
	GOTO       L_main3
	NOP
	NOP
;Ex3.c,13 :: 		porta = 1;
	MOVLW      1
	MOVWF      PORTA+0
;Ex3.c,14 :: 		delay_ms(1000);
	MOVLW      11
	MOVWF      R11+0
	MOVLW      38
	MOVWF      R12+0
	MOVLW      93
	MOVWF      R13+0
L_main4:
	DECFSZ     R13+0, 1
	GOTO       L_main4
	DECFSZ     R12+0, 1
	GOTO       L_main4
	DECFSZ     R11+0, 1
	GOTO       L_main4
	NOP
	NOP
;Ex3.c,15 :: 		porta = 0;
	CLRF       PORTA+0
;Ex3.c,16 :: 		delay_ms(1000);
	MOVLW      11
	MOVWF      R11+0
	MOVLW      38
	MOVWF      R12+0
	MOVLW      93
	MOVWF      R13+0
L_main5:
	DECFSZ     R13+0, 1
	GOTO       L_main5
	DECFSZ     R12+0, 1
	GOTO       L_main5
	DECFSZ     R11+0, 1
	GOTO       L_main5
	NOP
	NOP
;Ex3.c,17 :: 		porta = 1;
	MOVLW      1
	MOVWF      PORTA+0
;Ex3.c,18 :: 		delay_ms(1000);
	MOVLW      11
	MOVWF      R11+0
	MOVLW      38
	MOVWF      R12+0
	MOVLW      93
	MOVWF      R13+0
L_main6:
	DECFSZ     R13+0, 1
	GOTO       L_main6
	DECFSZ     R12+0, 1
	GOTO       L_main6
	DECFSZ     R11+0, 1
	GOTO       L_main6
	NOP
	NOP
;Ex3.c,19 :: 		porta = 0;
	CLRF       PORTA+0
;Ex3.c,20 :: 		delay_ms(1000);
	MOVLW      11
	MOVWF      R11+0
	MOVLW      38
	MOVWF      R12+0
	MOVLW      93
	MOVWF      R13+0
L_main7:
	DECFSZ     R13+0, 1
	GOTO       L_main7
	DECFSZ     R12+0, 1
	GOTO       L_main7
	DECFSZ     R11+0, 1
	GOTO       L_main7
	NOP
	NOP
;Ex3.c,21 :: 		portb = 1;
	MOVLW      1
	MOVWF      PORTB+0
;Ex3.c,22 :: 		delay_ms(1000);
	MOVLW      11
	MOVWF      R11+0
	MOVLW      38
	MOVWF      R12+0
	MOVLW      93
	MOVWF      R13+0
L_main8:
	DECFSZ     R13+0, 1
	GOTO       L_main8
	DECFSZ     R12+0, 1
	GOTO       L_main8
	DECFSZ     R11+0, 1
	GOTO       L_main8
	NOP
	NOP
;Ex3.c,23 :: 		portb = 0;
	CLRF       PORTB+0
;Ex3.c,24 :: 		delay_ms(1000);
	MOVLW      11
	MOVWF      R11+0
	MOVLW      38
	MOVWF      R12+0
	MOVLW      93
	MOVWF      R13+0
L_main9:
	DECFSZ     R13+0, 1
	GOTO       L_main9
	DECFSZ     R12+0, 1
	GOTO       L_main9
	DECFSZ     R11+0, 1
	GOTO       L_main9
	NOP
	NOP
;Ex3.c,25 :: 		portb = 1;
	MOVLW      1
	MOVWF      PORTB+0
;Ex3.c,26 :: 		delay_ms(1000);
	MOVLW      11
	MOVWF      R11+0
	MOVLW      38
	MOVWF      R12+0
	MOVLW      93
	MOVWF      R13+0
L_main10:
	DECFSZ     R13+0, 1
	GOTO       L_main10
	DECFSZ     R12+0, 1
	GOTO       L_main10
	DECFSZ     R11+0, 1
	GOTO       L_main10
	NOP
	NOP
;Ex3.c,27 :: 		portb = 0;
	CLRF       PORTB+0
;Ex3.c,28 :: 		delay_ms(1000);
	MOVLW      11
	MOVWF      R11+0
	MOVLW      38
	MOVWF      R12+0
	MOVLW      93
	MOVWF      R13+0
L_main11:
	DECFSZ     R13+0, 1
	GOTO       L_main11
	DECFSZ     R12+0, 1
	GOTO       L_main11
	DECFSZ     R11+0, 1
	GOTO       L_main11
	NOP
	NOP
;Ex3.c,29 :: 		portb = 1;
	MOVLW      1
	MOVWF      PORTB+0
;Ex3.c,30 :: 		delay_ms(1000);
	MOVLW      11
	MOVWF      R11+0
	MOVLW      38
	MOVWF      R12+0
	MOVLW      93
	MOVWF      R13+0
L_main12:
	DECFSZ     R13+0, 1
	GOTO       L_main12
	DECFSZ     R12+0, 1
	GOTO       L_main12
	DECFSZ     R11+0, 1
	GOTO       L_main12
	NOP
	NOP
;Ex3.c,31 :: 		portb = 0;
	CLRF       PORTB+0
;Ex3.c,32 :: 		delay_ms(1000);
	MOVLW      11
	MOVWF      R11+0
	MOVLW      38
	MOVWF      R12+0
	MOVLW      93
	MOVWF      R13+0
L_main13:
	DECFSZ     R13+0, 1
	GOTO       L_main13
	DECFSZ     R12+0, 1
	GOTO       L_main13
	DECFSZ     R11+0, 1
	GOTO       L_main13
	NOP
	NOP
;Ex3.c,34 :: 		porta = 1;
	MOVLW      1
	MOVWF      PORTA+0
;Ex3.c,35 :: 		portb = 1;
	MOVLW      1
	MOVWF      PORTB+0
;Ex3.c,36 :: 		delay_ms(250);
	MOVLW      3
	MOVWF      R11+0
	MOVLW      138
	MOVWF      R12+0
	MOVLW      85
	MOVWF      R13+0
L_main14:
	DECFSZ     R13+0, 1
	GOTO       L_main14
	DECFSZ     R12+0, 1
	GOTO       L_main14
	DECFSZ     R11+0, 1
	GOTO       L_main14
	NOP
	NOP
;Ex3.c,37 :: 		porta = 0;
	CLRF       PORTA+0
;Ex3.c,38 :: 		portb = 0;
	CLRF       PORTB+0
;Ex3.c,39 :: 		delay_ms(250);
	MOVLW      3
	MOVWF      R11+0
	MOVLW      138
	MOVWF      R12+0
	MOVLW      85
	MOVWF      R13+0
L_main15:
	DECFSZ     R13+0, 1
	GOTO       L_main15
	DECFSZ     R12+0, 1
	GOTO       L_main15
	DECFSZ     R11+0, 1
	GOTO       L_main15
	NOP
	NOP
;Ex3.c,40 :: 		porta = 1;
	MOVLW      1
	MOVWF      PORTA+0
;Ex3.c,41 :: 		portb = 1;
	MOVLW      1
	MOVWF      PORTB+0
;Ex3.c,42 :: 		delay_ms(250);
	MOVLW      3
	MOVWF      R11+0
	MOVLW      138
	MOVWF      R12+0
	MOVLW      85
	MOVWF      R13+0
L_main16:
	DECFSZ     R13+0, 1
	GOTO       L_main16
	DECFSZ     R12+0, 1
	GOTO       L_main16
	DECFSZ     R11+0, 1
	GOTO       L_main16
	NOP
	NOP
;Ex3.c,43 :: 		porta = 0;
	CLRF       PORTA+0
;Ex3.c,44 :: 		portb = 0;
	CLRF       PORTB+0
;Ex3.c,45 :: 		delay_ms(250);
	MOVLW      3
	MOVWF      R11+0
	MOVLW      138
	MOVWF      R12+0
	MOVLW      85
	MOVWF      R13+0
L_main17:
	DECFSZ     R13+0, 1
	GOTO       L_main17
	DECFSZ     R12+0, 1
	GOTO       L_main17
	DECFSZ     R11+0, 1
	GOTO       L_main17
	NOP
	NOP
;Ex3.c,46 :: 		porta = 1;
	MOVLW      1
	MOVWF      PORTA+0
;Ex3.c,47 :: 		portb = 1;
	MOVLW      1
	MOVWF      PORTB+0
;Ex3.c,48 :: 		delay_ms(250);
	MOVLW      3
	MOVWF      R11+0
	MOVLW      138
	MOVWF      R12+0
	MOVLW      85
	MOVWF      R13+0
L_main18:
	DECFSZ     R13+0, 1
	GOTO       L_main18
	DECFSZ     R12+0, 1
	GOTO       L_main18
	DECFSZ     R11+0, 1
	GOTO       L_main18
	NOP
	NOP
;Ex3.c,49 :: 		porta = 0;
	CLRF       PORTA+0
;Ex3.c,50 :: 		portb = 0;
	CLRF       PORTB+0
;Ex3.c,51 :: 		delay_ms(250);
	MOVLW      3
	MOVWF      R11+0
	MOVLW      138
	MOVWF      R12+0
	MOVLW      85
	MOVWF      R13+0
L_main19:
	DECFSZ     R13+0, 1
	GOTO       L_main19
	DECFSZ     R12+0, 1
	GOTO       L_main19
	DECFSZ     R11+0, 1
	GOTO       L_main19
	NOP
	NOP
;Ex3.c,52 :: 		porta = 1;
	MOVLW      1
	MOVWF      PORTA+0
;Ex3.c,53 :: 		portb = 1;
	MOVLW      1
	MOVWF      PORTB+0
;Ex3.c,54 :: 		delay_ms(250);
	MOVLW      3
	MOVWF      R11+0
	MOVLW      138
	MOVWF      R12+0
	MOVLW      85
	MOVWF      R13+0
L_main20:
	DECFSZ     R13+0, 1
	GOTO       L_main20
	DECFSZ     R12+0, 1
	GOTO       L_main20
	DECFSZ     R11+0, 1
	GOTO       L_main20
	NOP
	NOP
;Ex3.c,55 :: 		porta = 0;
	CLRF       PORTA+0
;Ex3.c,56 :: 		portb = 0;
	CLRF       PORTB+0
;Ex3.c,57 :: 		delay_ms(250);
	MOVLW      3
	MOVWF      R11+0
	MOVLW      138
	MOVWF      R12+0
	MOVLW      85
	MOVWF      R13+0
L_main21:
	DECFSZ     R13+0, 1
	GOTO       L_main21
	DECFSZ     R12+0, 1
	GOTO       L_main21
	DECFSZ     R11+0, 1
	GOTO       L_main21
	NOP
	NOP
;Ex3.c,58 :: 		porta = 1;
	MOVLW      1
	MOVWF      PORTA+0
;Ex3.c,59 :: 		portb = 1;
	MOVLW      1
	MOVWF      PORTB+0
;Ex3.c,60 :: 		delay_ms(250);
	MOVLW      3
	MOVWF      R11+0
	MOVLW      138
	MOVWF      R12+0
	MOVLW      85
	MOVWF      R13+0
L_main22:
	DECFSZ     R13+0, 1
	GOTO       L_main22
	DECFSZ     R12+0, 1
	GOTO       L_main22
	DECFSZ     R11+0, 1
	GOTO       L_main22
	NOP
	NOP
;Ex3.c,61 :: 		porta = 0;
	CLRF       PORTA+0
;Ex3.c,62 :: 		portb = 0;
	CLRF       PORTB+0
;Ex3.c,63 :: 		delay_ms(250);
	MOVLW      3
	MOVWF      R11+0
	MOVLW      138
	MOVWF      R12+0
	MOVLW      85
	MOVWF      R13+0
L_main23:
	DECFSZ     R13+0, 1
	GOTO       L_main23
	DECFSZ     R12+0, 1
	GOTO       L_main23
	DECFSZ     R11+0, 1
	GOTO       L_main23
	NOP
	NOP
;Ex3.c,64 :: 		delay_ms(2000);
	MOVLW      21
	MOVWF      R11+0
	MOVLW      75
	MOVWF      R12+0
	MOVLW      190
	MOVWF      R13+0
L_main24:
	DECFSZ     R13+0, 1
	GOTO       L_main24
	DECFSZ     R12+0, 1
	GOTO       L_main24
	DECFSZ     R11+0, 1
	GOTO       L_main24
	NOP
;Ex3.c,66 :: 		portb=0b11111111;
	MOVLW      255
	MOVWF      PORTB+0
;Ex3.c,67 :: 		delay_ms(250);
	MOVLW      3
	MOVWF      R11+0
	MOVLW      138
	MOVWF      R12+0
	MOVLW      85
	MOVWF      R13+0
L_main25:
	DECFSZ     R13+0, 1
	GOTO       L_main25
	DECFSZ     R12+0, 1
	GOTO       L_main25
	DECFSZ     R11+0, 1
	GOTO       L_main25
	NOP
	NOP
;Ex3.c,68 :: 		portb=0b00000000;
	CLRF       PORTB+0
;Ex3.c,70 :: 		}
	GOTO       L_main0
;Ex3.c,71 :: 		}
L_end_main:
	GOTO       $+0
; end of _main
